target datalayout = "e-m:e-p270:32:32-p271:32:32-p272:64:64-i64:64-i128:128-f80:128-n8:16:32:64-S128"
target triple = "x86_64-pc-linux-gnu"

%struct.object_id = type { [32 x i8], i32 }
%struct.pbase_tree = type { ptr, %struct.pbase_tree_cache }
%struct.pbase_tree_cache = type { %struct.object_id, i32, i32, ptr, i64 }

@the_repository = external global ptr, align 8
@window = internal global i32 10, align 4
@num_preferred_base = internal global i32 0, align 4
@pbase_tree = internal global ptr null, align 8

; Function Attrs: inlinehint nounwind uwtable
define internal void @oidcpy(ptr noundef %0, ptr noundef %1) #2 {
  %3 = alloca ptr, align 8
  %4 = alloca ptr, align 8
  store ptr %0, ptr %3, align 8, !tbaa !190
  store ptr %1, ptr %4, align 8, !tbaa !190
  %5 = load ptr, ptr %3, align 8, !tbaa !190
  %6 = getelementptr inbounds nuw %struct.object_id, ptr %5, i32 0, i32 0
  %7 = getelementptr inbounds [32 x i8], ptr %6, i64 0, i64 0
  %8 = load ptr, ptr %4, align 8, !tbaa !190
  %9 = getelementptr inbounds nuw %struct.object_id, ptr %8, i32 0, i32 0
  %10 = getelementptr inbounds [32 x i8], ptr %9, i64 0, i64 0
  call void @llvm.memcpy.p0.p0.i64(ptr align 4 %7, ptr align 4 %10, i64 32, i1 false)
  %11 = load ptr, ptr %4, align 8, !tbaa !190
  %12 = getelementptr inbounds nuw %struct.object_id, ptr %11, i32 0, i32 1
  %13 = load i32, ptr %12, align 4, !tbaa !242
  %14 = load ptr, ptr %3, align 8, !tbaa !190
  %15 = getelementptr inbounds nuw %struct.object_id, ptr %14, i32 0, i32 1
  store i32 %13, ptr %15, align 4, !tbaa !242
  ret void
}

; Function Attrs: inlinehint nounwind uwtable
define internal i32 @oideq(ptr noundef %0, ptr noundef %1) #2 {
  %3 = alloca ptr, align 8
  %4 = alloca ptr, align 8
  store ptr %0, ptr %3, align 8, !tbaa !190
  store ptr %1, ptr %4, align 8, !tbaa !190
  %5 = load ptr, ptr %3, align 8, !tbaa !190
  %6 = getelementptr inbounds nuw %struct.object_id, ptr %5, i32 0, i32 0
  %7 = getelementptr inbounds [32 x i8], ptr %6, i64 0, i64 0
  %8 = load ptr, ptr %4, align 8, !tbaa !190
  %9 = getelementptr inbounds nuw %struct.object_id, ptr %8, i32 0, i32 0
  %10 = getelementptr inbounds [32 x i8], ptr %9, i64 0, i64 0
  %11 = call i32 @memcmp(ptr noundef %7, ptr noundef %10, i64 noundef 32) #13
  %12 = icmp ne i32 %11, 0
  %13 = xor i1 %12, true
  %14 = zext i1 %13 to i32
  ret i32 %14
}

; Function Attrs: nounwind uwtable
define internal void @add_preferred_base(ptr noundef %0) #0 {
  %2 = alloca ptr, align 8
  %3 = alloca ptr, align 8
  %4 = alloca ptr, align 8
  %5 = alloca i64, align 8
  %6 = alloca %struct.object_id, align 4
  %7 = alloca i32, align 4
  store ptr %0, ptr %2, align 8, !tbaa !190
  call void @llvm.lifetime.start.p0(i64 8, ptr %3) #11
  call void @llvm.lifetime.start.p0(i64 8, ptr %4) #11
  call void @llvm.lifetime.start.p0(i64 8, ptr %5) #11
  call void @llvm.lifetime.start.p0(i64 36, ptr %6) #11
  %8 = load i32, ptr @window, align 4, !tbaa !27
  %9 = load i32, ptr @num_preferred_base, align 4, !tbaa !27
  %10 = add nsw i32 %9, 1
  store i32 %10, ptr @num_preferred_base, align 4, !tbaa !27
  %11 = icmp sle i32 %8, %9
  br i1 %11, label %12, label %13

12:                                               ; preds = %1
  store i32 1, ptr %7, align 4
  br label %55

13:                                               ; preds = %1
  %14 = load ptr, ptr @the_repository, align 8, !tbaa !11
  %15 = load ptr, ptr %2, align 8, !tbaa !190
  %16 = call ptr @read_object_with_reference(ptr noundef %14, ptr noundef %15, i32 noundef 2, ptr noundef %5, ptr noundef %6)
  store ptr %16, ptr %4, align 8, !tbaa !134
  %17 = load ptr, ptr %4, align 8, !tbaa !134
  %18 = icmp ne ptr %17, null
  br i1 %18, label %20, label %19

19:                                               ; preds = %13
  store i32 1, ptr %7, align 4
  br label %55

20:                                               ; preds = %13
  %21 = load ptr, ptr @pbase_tree, align 8, !tbaa !179
  store ptr %21, ptr %3, align 8, !tbaa !179
  br label %22

22:                                               ; preds = %34, %20
  %23 = load ptr, ptr %3, align 8, !tbaa !179
  %24 = icmp ne ptr %23, null
  br i1 %24, label %25, label %38

25:                                               ; preds = %22
  %26 = load ptr, ptr %3, align 8, !tbaa !179
  %27 = getelementptr inbounds nuw %struct.pbase_tree, ptr %26, i32 0, i32 1
  %28 = getelementptr inbounds nuw %struct.pbase_tree_cache, ptr %27, i32 0, i32 0
  %29 = call i32 @oideq(ptr noundef %28, ptr noundef %6)
  %30 = icmp ne i32 %29, 0
  br i1 %30, label %31, label %33

31:                                               ; preds = %25
  %32 = load ptr, ptr %4, align 8, !tbaa !134
  call void @free(ptr noundef %32) #11
  store i32 1, ptr %7, align 4
  br label %55

33:                                               ; preds = %25
  br label %34

34:                                               ; preds = %33
  %35 = load ptr, ptr %3, align 8, !tbaa !179
  %36 = getelementptr inbounds nuw %struct.pbase_tree, ptr %35, i32 0, i32 0
  %37 = load ptr, ptr %36, align 8, !tbaa !181
  store ptr %37, ptr %3, align 8, !tbaa !179
  br label %22, !llvm.loop !280

38:                                               ; preds = %22
  %39 = call ptr @xcalloc(i64 noundef 1, i64 noundef 72)
  store ptr %39, ptr %3, align 8, !tbaa !179
  %40 = load ptr, ptr @pbase_tree, align 8, !tbaa !179
  %41 = load ptr, ptr %3, align 8, !tbaa !179
  %42 = getelementptr inbounds nuw %struct.pbase_tree, ptr %41, i32 0, i32 0
  store ptr %40, ptr %42, align 8, !tbaa !181
  %43 = load ptr, ptr %3, align 8, !tbaa !179
  store ptr %43, ptr @pbase_tree, align 8, !tbaa !179
  %44 = load ptr, ptr %3, align 8, !tbaa !179
  %45 = getelementptr inbounds nuw %struct.pbase_tree, ptr %44, i32 0, i32 1
  %46 = getelementptr inbounds nuw %struct.pbase_tree_cache, ptr %45, i32 0, i32 0
  call void @oidcpy(ptr noundef %46, ptr noundef %6)
  %47 = load ptr, ptr %4, align 8, !tbaa !134
  %48 = load ptr, ptr %3, align 8, !tbaa !179
  %49 = getelementptr inbounds nuw %struct.pbase_tree, ptr %48, i32 0, i32 1
  %50 = getelementptr inbounds nuw %struct.pbase_tree_cache, ptr %49, i32 0, i32 3
  store ptr %47, ptr %50, align 8, !tbaa !184
  %51 = load i64, ptr %5, align 8, !tbaa !13
  %52 = load ptr, ptr %3, align 8, !tbaa !179
  %53 = getelementptr inbounds nuw %struct.pbase_tree, ptr %52, i32 0, i32 1
  %54 = getelementptr inbounds nuw %struct.pbase_tree_cache, ptr %53, i32 0, i32 4
  store i64 %51, ptr %54, align 8, !tbaa !223
  store i32 0, ptr %7, align 4
  br label %55

55:                                               ; preds = %38, %31, %19, %12
  call void @llvm.lifetime.end.p0(i64 36, ptr %6) #11
  call void @llvm.lifetime.end.p0(i64 8, ptr %5) #11
  call void @llvm.lifetime.end.p0(i64 8, ptr %4) #11
  call void @llvm.lifetime.end.p0(i64 8, ptr %3) #11
  %56 = load i32, ptr %7, align 4
  switch i32 %56, label %58 [
    i32 0, label %57
    i32 1, label %57
  ]

57:                                               ; preds = %55, %55
  ret void

58:                                               ; preds = %55
  unreachable
}