; Function Attrs: nounwind uwtable
define internal fastcc void @add_preferred_base(ptr noundef %0) unnamed_addr #0 {
  %2 = alloca i64, align 8
  %3 = alloca %struct.object_id, align 4
  call void @llvm.lifetime.start.p0(i64 8, ptr nonnull %2) #25
  call void @llvm.lifetime.start.p0(i64 36, ptr nonnull %3) #25
  %4 = load i32, ptr @window, align 4, !tbaa !30
  %5 = load i32, ptr @num_preferred_base, align 4, !tbaa !30
  %6 = add nsw i32 %5, 1
  store i32 %6, ptr @num_preferred_base, align 4, !tbaa !30
  %.not = icmp sgt i32 %4, %5
  br i1 %.not, label %7, label %23

7:                                                ; preds = %1
  %8 = load ptr, ptr @the_repository, align 8, !tbaa !4
  %9 = call ptr @read_object_with_reference(ptr noundef %8, ptr noundef %0, i32 noundef 2, ptr noundef nonnull %2, ptr noundef nonnull %3) #25
  %.not13 = icmp eq ptr %9, null
  br i1 %.not13, label %23, label %.preheader

.preheader:                                       ; preds = %7, %10
  %.0.in = phi ptr [ %.0, %10 ], [ @pbase_tree, %7 ]
  %.0 = load ptr, ptr %.0.in, align 8, !tbaa !146
  %.not14 = icmp eq ptr %.0, null
  br i1 %.not14, label %13, label %10

10:                                               ; preds = %.preheader
  %11 = getelementptr inbounds nuw i8, ptr %.0, i64 8
  %bcmp.i = call i32 @bcmp(ptr noundef nonnull readonly dereferenceable(32) %11, ptr noundef nonnull readonly dereferenceable(32) %3, i64 32)
  %.not.i.not = icmp eq i32 %bcmp.i, 0
  br i1 %.not.i.not, label %12, label %.preheader, !llvm.loop !322

12:                                               ; preds = %10
  call void @free(ptr noundef %9) #25
  br label %23

13:                                               ; preds = %.preheader
  %14 = call ptr @xcalloc(i64 noundef 1, i64 noundef 72) #25
  %15 = load ptr, ptr @pbase_tree, align 8, !tbaa !146
  store ptr %15, ptr %14, align 8, !tbaa !148
  store ptr %14, ptr @pbase_tree, align 8, !tbaa !146
  %16 = getelementptr inbounds nuw i8, ptr %14, i64 8
  call void @llvm.memcpy.p0.p0.i64(ptr noundef nonnull align 4 dereferenceable(32) %16, ptr noundef nonnull readonly align 4 dereferenceable(32) %3, i64 32, i1 false)
  %17 = getelementptr inbounds nuw i8, ptr %3, i64 32
  %18 = load i32, ptr %17, align 4, !tbaa !171
  %19 = getelementptr inbounds nuw i8, ptr %14, i64 40
  store i32 %18, ptr %19, align 4, !tbaa !171
  %20 = getelementptr inbounds nuw i8, ptr %14, i64 56
  store ptr %9, ptr %20, align 8, !tbaa !151
  %21 = load i64, ptr %2, align 8, !tbaa !28
  %22 = getelementptr inbounds nuw i8, ptr %14, i64 64
  store i64 %21, ptr %22, align 8, !tbaa !290
  br label %23

23:                                               ; preds = %7, %1, %13, %12
  call void @llvm.lifetime.end.p0(i64 36, ptr nonnull %3) #25
  call void @llvm.lifetime.end.p0(i64 8, ptr nonnull %2) #25
  ret void
}